target datalayout = "e-m:e-p270:32:32-p271:32:32-p272:64:64-i64:64-i128:128-f80:128-n8:16:32:64-S128"
target triple = "x86_64-pc-linux-gnu"

%struct._cwd_state = type { ptr, i64 }
%struct._virtual_cwd_globals = type { %struct._cwd_state, i64, i64, i64, [1024 x ptr] }
%struct._realpath_cache_bucket = type { i64, ptr, ptr, ptr, i64, i16, i16, i8 }

@cwd_globals = hidden global %struct._virtual_cwd_globals zeroinitializer, align 8

; Function Attrs: inlinehint nounwind uwtable
define internal i64 @realpath_cache_key(ptr noundef %0, i64 noundef %1) #9 {
  %3 = alloca ptr, align 8
  %4 = alloca i64, align 8
  %5 = alloca i64, align 8
  %6 = alloca ptr, align 8
  store ptr %0, ptr %3, align 8, !tbaa !12
  store i64 %1, ptr %4, align 8, !tbaa !26
  call void @llvm.lifetime.start.p0(i64 8, ptr %5) #16
  call void @llvm.lifetime.start.p0(i64 8, ptr %6) #16
  %7 = load ptr, ptr %3, align 8, !tbaa !12
  %8 = load i64, ptr %4, align 8, !tbaa !26
  %9 = getelementptr inbounds nuw i8, ptr %7, i64 %8
  store ptr %9, ptr %6, align 8, !tbaa !12
  store i64 2166136261, ptr %5, align 8, !tbaa !26
  br label %10

10:                                               ; preds = %14, %2
  %11 = load ptr, ptr %3, align 8, !tbaa !12
  %12 = load ptr, ptr %6, align 8, !tbaa !12
  %13 = icmp ult ptr %11, %12
  br i1 %13, label %14, label %23

14:                                               ; preds = %10
  %15 = load i64, ptr %5, align 8, !tbaa !26
  %16 = mul i64 %15, 16777619
  store i64 %16, ptr %5, align 8, !tbaa !26
  %17 = load ptr, ptr %3, align 8, !tbaa !12
  %18 = getelementptr inbounds nuw i8, ptr %17, i32 1
  store ptr %18, ptr %3, align 8, !tbaa !12
  %19 = load i8, ptr %17, align 1, !tbaa !4
  %20 = sext i8 %19 to i64
  %21 = load i64, ptr %5, align 8, !tbaa !26
  %22 = xor i64 %21, %20
  store i64 %22, ptr %5, align 8, !tbaa !26
  br label %10

23:                                               ; preds = %10
  %24 = load i64, ptr %5, align 8, !tbaa !26
  call void @llvm.lifetime.end.p0(i64 8, ptr %6) #16
  call void @llvm.lifetime.end.p0(i64 8, ptr %5) #16
  ret i64 %24
}

; Function Attrs: nounwind uwtable
define dso_local void @realpath_cache_del(ptr noundef %0, i64 noundef %1) #0 {
  %3 = alloca ptr, align 8
  %4 = alloca i64, align 8
  %5 = alloca i64, align 8
  %6 = alloca i64, align 8
  %7 = alloca ptr, align 8
  %8 = alloca ptr, align 8
  %9 = alloca i32, align 4
  store ptr %0, ptr %3, align 8, !tbaa !12
  store i64 %1, ptr %4, align 8, !tbaa !26
  call void @llvm.lifetime.start.p0(i64 8, ptr %5) #16
  %10 = load ptr, ptr %3, align 8, !tbaa !12
  %11 = load i64, ptr %4, align 8, !tbaa !26
  %12 = call i64 @realpath_cache_key(ptr noundef %10, i64 noundef %11)
  store i64 %12, ptr %5, align 8, !tbaa !26
  call void @llvm.lifetime.start.p0(i64 8, ptr %6) #16
  %13 = load i64, ptr %5, align 8, !tbaa !26
  %14 = urem i64 %13, 1024
  store i64 %14, ptr %6, align 8, !tbaa !26
  call void @llvm.lifetime.start.p0(i64 8, ptr %7) #16
  %15 = load i64, ptr %6, align 8, !tbaa !26
  %16 = getelementptr inbounds nuw [1024 x ptr], ptr getelementptr inbounds nuw (%struct._virtual_cwd_globals, ptr @cwd_globals, i32 0, i32 4), i64 0, i64 %15
  store ptr %16, ptr %7, align 8, !tbaa !29
  br label %17

17:                                               ; preds = %90, %2
  %18 = load ptr, ptr %7, align 8, !tbaa !29
  %19 = load ptr, ptr %18, align 8, !tbaa !31
  %20 = icmp ne ptr %19, null
  br i1 %20, label %21, label %91

21:                                               ; preds = %17
  %22 = load i64, ptr %5, align 8, !tbaa !26
  %23 = load ptr, ptr %7, align 8, !tbaa !29
  %24 = load ptr, ptr %23, align 8, !tbaa !31
  %25 = getelementptr inbounds nuw %struct._realpath_cache_bucket, ptr %24, i32 0, i32 0
  %26 = load i64, ptr %25, align 8, !tbaa !36
  %27 = icmp eq i64 %22, %26
  br i1 %27, label %28, label %86

28:                                               ; preds = %21
  %29 = load i64, ptr %4, align 8, !tbaa !26
  %30 = load ptr, ptr %7, align 8, !tbaa !29
  %31 = load ptr, ptr %30, align 8, !tbaa !31
  %32 = getelementptr inbounds nuw %struct._realpath_cache_bucket, ptr %31, i32 0, i32 5
  %33 = load i16, ptr %32, align 8, !tbaa !37
  %34 = zext i16 %33 to i64
  %35 = icmp eq i64 %29, %34
  br i1 %35, label %36, label %86

36:                                               ; preds = %28
  %37 = load ptr, ptr %3, align 8, !tbaa !12
  %38 = load ptr, ptr %7, align 8, !tbaa !29
  %39 = load ptr, ptr %38, align 8, !tbaa !31
  %40 = getelementptr inbounds nuw %struct._realpath_cache_bucket, ptr %39, i32 0, i32 1
  %41 = load ptr, ptr %40, align 8, !tbaa !38
  %42 = load i64, ptr %4, align 8, !tbaa !26
  %43 = call i32 @memcmp(ptr noundef %37, ptr noundef %41, i64 noundef %42) #17
  %44 = icmp eq i32 %43, 0
  br i1 %44, label %45, label %86

45:                                               ; preds = %36
  call void @llvm.lifetime.start.p0(i64 8, ptr %8) #16
  %46 = load ptr, ptr %7, align 8, !tbaa !29
  %47 = load ptr, ptr %46, align 8, !tbaa !31
  store ptr %47, ptr %8, align 8, !tbaa !31
  %48 = load ptr, ptr %7, align 8, !tbaa !29
  %49 = load ptr, ptr %48, align 8, !tbaa !31
  %50 = getelementptr inbounds nuw %struct._realpath_cache_bucket, ptr %49, i32 0, i32 3
  %51 = load ptr, ptr %50, align 8, !tbaa !33
  %52 = load ptr, ptr %7, align 8, !tbaa !29
  store ptr %51, ptr %52, align 8, !tbaa !31
  %53 = load ptr, ptr %8, align 8, !tbaa !31
  %54 = getelementptr inbounds nuw %struct._realpath_cache_bucket, ptr %53, i32 0, i32 1
  %55 = load ptr, ptr %54, align 8, !tbaa !38
  %56 = load ptr, ptr %8, align 8, !tbaa !31
  %57 = getelementptr inbounds nuw %struct._realpath_cache_bucket, ptr %56, i32 0, i32 2
  %58 = load ptr, ptr %57, align 8, !tbaa !39
  %59 = icmp eq ptr %55, %58
  br i1 %59, label %60, label %69

60:                                               ; preds = %45
  %61 = load ptr, ptr %8, align 8, !tbaa !31
  %62 = getelementptr inbounds nuw %struct._realpath_cache_bucket, ptr %61, i32 0, i32 5
  %63 = load i16, ptr %62, align 8, !tbaa !37
  %64 = zext i16 %63 to i64
  %65 = add i64 48, %64
  %66 = add i64 %65, 1
  %67 = load i64, ptr getelementptr inbounds nuw (%struct._virtual_cwd_globals, ptr @cwd_globals, i32 0, i32 1), align 8, !tbaa !19
  %68 = sub i64 %67, %66
  store i64 %68, ptr getelementptr inbounds nuw (%struct._virtual_cwd_globals, ptr @cwd_globals, i32 0, i32 1), align 8, !tbaa !19
  br label %84

69:                                               ; preds = %45
  %70 = load ptr, ptr %8, align 8, !tbaa !31
  %71 = getelementptr inbounds nuw %struct._realpath_cache_bucket, ptr %70, i32 0, i32 5
  %72 = load i16, ptr %71, align 8, !tbaa !37
  %73 = zext i16 %72 to i64
  %74 = add i64 48, %73
  %75 = add i64 %74, 1
  %76 = load ptr, ptr %8, align 8, !tbaa !31
  %77 = getelementptr inbounds nuw %struct._realpath_cache_bucket, ptr %76, i32 0, i32 6
  %78 = load i16, ptr %77, align 2, !tbaa !40
  %79 = zext i16 %78 to i64
  %80 = add i64 %75, %79
  %81 = add i64 %80, 1
  %82 = load i64, ptr getelementptr inbounds nuw (%struct._virtual_cwd_globals, ptr @cwd_globals, i32 0, i32 1), align 8, !tbaa !19
  %83 = sub i64 %82, %81
  store i64 %83, ptr getelementptr inbounds nuw (%struct._virtual_cwd_globals, ptr @cwd_globals, i32 0, i32 1), align 8, !tbaa !19
  br label %84

84:                                               ; preds = %69, %60
  %85 = load ptr, ptr %8, align 8, !tbaa !31
  call void @free(ptr noundef %85) #16
  store i32 1, ptr %9, align 4
  call void @llvm.lifetime.end.p0(i64 8, ptr %8) #16
  br label %92

86:                                               ; preds = %36, %28, %21
  %87 = load ptr, ptr %7, align 8, !tbaa !29
  %88 = load ptr, ptr %87, align 8, !tbaa !31
  %89 = getelementptr inbounds nuw %struct._realpath_cache_bucket, ptr %88, i32 0, i32 3
  store ptr %89, ptr %7, align 8, !tbaa !29
  br label %90

90:                                               ; preds = %86
  br label %17

91:                                               ; preds = %17
  store i32 0, ptr %9, align 4
  br label %92

92:                                               ; preds = %91, %84
  call void @llvm.lifetime.end.p0(i64 8, ptr %7) #16
  call void @llvm.lifetime.end.p0(i64 8, ptr %6) #16
  call void @llvm.lifetime.end.p0(i64 8, ptr %5) #16
  %93 = load i32, ptr %9, align 4
  switch i32 %93, label %95 [
    i32 0, label %94
    i32 1, label %94
  ]

94:                                               ; preds = %92, %92
  ret void

95:                                               ; preds = %92
  unreachable
}