; Function Attrs: nounwind uwtable
define dso_local void @realpath_cache_del(ptr noundef readonly captures(address) %0, i64 noundef %1) local_unnamed_addr #0 {
  %3 = getelementptr inbounds nuw i8, ptr %0, i64 %1
  %.not.i = icmp eq i64 %1, 0
  br i1 %.not.i, label %realpath_cache_key.exit, label %.lr.ph.i

.lr.ph.i:                                         ; preds = %2, %.lr.ph.i
  %.09.i = phi ptr [ %5, %.lr.ph.i ], [ %0, %2 ]
  %.078.i = phi i64 [ %8, %.lr.ph.i ], [ 2166136261, %2 ]
  %4 = mul i64 %.078.i, 16777619
  %5 = getelementptr inbounds nuw i8, ptr %.09.i, i64 1
  %6 = load i8, ptr %.09.i, align 1, !tbaa !11
  %7 = sext i8 %6 to i64
  %8 = xor i64 %4, %7
  %9 = icmp ult ptr %5, %3
  br i1 %9, label %.lr.ph.i, label %realpath_cache_key.exit

realpath_cache_key.exit:                          ; preds = %.lr.ph.i, %2
  %.07.lcssa.i = phi i64 [ 2166136261, %2 ], [ %8, %.lr.ph.i ]
  %10 = and i64 %.07.lcssa.i, 1023
  %11 = getelementptr inbounds nuw [1024 x ptr], ptr getelementptr inbounds nuw (i8, ptr @cwd_globals, i64 40), i64 0, i64 %10
  %12 = load ptr, ptr %11, align 8, !tbaa !17
  %.not30 = icmp eq ptr %12, null
  br i1 %.not30, label %.loopexit, label %.lr.ph

.lr.ph:                                           ; preds = %realpath_cache_key.exit, %42
  %13 = phi ptr [ %44, %42 ], [ %12, %realpath_cache_key.exit ]
  %.031 = phi ptr [ %43, %42 ], [ %11, %realpath_cache_key.exit ]
  %14 = load i64, ptr %13, align 8, !tbaa !25
  %15 = icmp eq i64 %.07.lcssa.i, %14
  br i1 %15, label %16, label %42

16:                                               ; preds = %.lr.ph
  %17 = getelementptr inbounds nuw i8, ptr %13, i64 40
  %18 = load i16, ptr %17, align 8, !tbaa !26
  %19 = zext i16 %18 to i64
  %20 = icmp eq i64 %1, %19
  br i1 %20, label %21, label %42

21:                                               ; preds = %16
  %22 = getelementptr inbounds nuw i8, ptr %13, i64 8
  %23 = load ptr, ptr %22, align 8, !tbaa !27
  %bcmp = tail call i32 @bcmp(ptr %0, ptr %23, i64 %1)
  %24 = icmp eq i32 %bcmp, 0
  br i1 %24, label %25, label %42

25:                                               ; preds = %21
  %26 = getelementptr inbounds nuw i8, ptr %13, i64 24
  %27 = load ptr, ptr %26, align 8, !tbaa !19
  store ptr %27, ptr %.031, align 8, !tbaa !17
  %28 = getelementptr inbounds nuw i8, ptr %13, i64 16
  %29 = load ptr, ptr %28, align 8, !tbaa !28
  %30 = icmp eq ptr %23, %29
  br i1 %30, label %31, label %34

31:                                               ; preds = %25
  %32 = load i64, ptr getelementptr inbounds nuw (i8, ptr @cwd_globals, i64 16), align 8, !tbaa !29
  %reass.sub = sub i64 %32, %1
  %33 = add i64 %reass.sub, -49
  br label %41

34:                                               ; preds = %25
  %35 = getelementptr inbounds nuw i8, ptr %13, i64 42
  %36 = load i16, ptr %35, align 2, !tbaa !30
  %37 = zext i16 %36 to i64
  %38 = load i64, ptr getelementptr inbounds nuw (i8, ptr @cwd_globals, i64 16), align 8, !tbaa !29
  %39 = add nuw nsw i64 %1, %37
  %reass.sub32 = sub i64 %38, %39
  %40 = add i64 %reass.sub32, -50
  br label %41

41:                                               ; preds = %34, %31
  %storemerge = phi i64 [ %40, %34 ], [ %33, %31 ]
  store i64 %storemerge, ptr getelementptr inbounds nuw (i8, ptr @cwd_globals, i64 16), align 8, !tbaa !29
  tail call void @free(ptr noundef nonnull %13) #22
  br label %.loopexit

42:                                               ; preds = %21, %16, %.lr.ph
  %43 = getelementptr inbounds nuw i8, ptr %13, i64 24
  %44 = load ptr, ptr %43, align 8, !tbaa !17
  %.not = icmp eq ptr %44, null
  br i1 %.not, label %.loopexit, label %.lr.ph

.loopexit:                                        ; preds = %42, %realpath_cache_key.exit, %41
  ret void
}